target datalayout = "e-m:e-p270:32:32-p271:32:32-p272:64:64-i64:64-i128:128-f80:128-n8:16:32:64-S128"
target triple = "x86_64-pc-linux-gnu"

%"class.std::__cxx11::basic_string" = type { %"struct.std::__cxx11::basic_string<char>::_Alloc_hider", i64, %union.anon }
%"struct.std::__cxx11::basic_string<char>::_Alloc_hider" = type { ptr }
%union.anon = type { i64, [8 x i8] }
%"class.std::allocator" = type { i8 }
%struct.BuildLog = type <{ %"class.emhash8::HashMap", ptr, %"class.std::__cxx11::basic_string", i8, [7 x i8] }>
%"class.emhash8::HashMap" = type <{ ptr, ptr, [4 x i8], i32, i32, i32, i32, i32, i32, [4 x i8] }>

; Function Attrs: mustprogress nounwind uwtable
define linkonce_odr dso_local void @_ZNSt15__new_allocatorIcEC2ERKS0_(ptr noundef nonnull align 1 dereferenceable(1) %0, ptr noundef nonnull align 1 dereferenceable(1) %1) unnamed_addr #0 comdat align 2 {
  %3 = alloca ptr, align 8
  %4 = alloca ptr, align 8
  store ptr %0, ptr %3, align 8, !tbaa !131
  store ptr %1, ptr %4, align 8, !tbaa !131
  ret void
}

; Function Attrs: mustprogress nounwind uwtable
define linkonce_odr dso_local void @_ZNSt11char_traitsIcE6assignERcRKc(ptr noundef nonnull align 1 dereferenceable(1) %0, ptr noundef nonnull align 1 dereferenceable(1) %1) #0 comdat align 2 {
  %3 = alloca ptr, align 8
  %4 = alloca ptr, align 8
  store ptr %0, ptr %3, align 8, !tbaa !58
  store ptr %1, ptr %4, align 8, !tbaa !58
  %5 = load ptr, ptr %4, align 8, !tbaa !58
  %6 = load i8, ptr %5, align 1, !tbaa !26
  %7 = load ptr, ptr %3, align 8, !tbaa !58
  store i8 %6, ptr %7, align 1, !tbaa !26
  ret void
}

; Function Attrs: mustprogress nounwind uwtable
define available_externally noundef ptr @_ZNKSt7__cxx1112basic_stringIcSt11char_traitsIcESaIcEE7_M_dataEv(ptr noundef nonnull align 8 dereferenceable(32) %0) #0 align 2 {
  %2 = alloca ptr, align 8
  store ptr %0, ptr %2, align 8, !tbaa !16
  %3 = load ptr, ptr %2, align 8
  %4 = getelementptr inbounds nuw %"class.std::__cxx11::basic_string", ptr %3, i32 0, i32 0
  %5 = getelementptr inbounds nuw %"struct.std::__cxx11::basic_string<char>::_Alloc_hider", ptr %4, i32 0, i32 0
  %6 = load ptr, ptr %5, align 8, !tbaa !120
  ret ptr %6
}

; Function Attrs: mustprogress nounwind uwtable
define available_externally void @_ZNSt7__cxx1112basic_stringIcSt11char_traitsIcESaIcEE9_M_lengthEm(ptr noundef nonnull align 8 dereferenceable(32) %0, i64 noundef %1) #0 align 2 {
  %3 = alloca ptr, align 8
  %4 = alloca i64, align 8
  store ptr %0, ptr %3, align 8, !tbaa !16
  store i64 %1, ptr %4, align 8, !tbaa !13
  %5 = load ptr, ptr %3, align 8
  %6 = load i64, ptr %4, align 8, !tbaa !13
  %7 = getelementptr inbounds nuw %"class.std::__cxx11::basic_string", ptr %5, i32 0, i32 1
  store i64 %6, ptr %7, align 8, !tbaa !119
  ret void
}

; Function Attrs: mustprogress nounwind uwtable
define available_externally void @_ZNSaIcEC2ERKS_(ptr noundef nonnull align 1 dereferenceable(1) %0, ptr noundef nonnull align 1 dereferenceable(1) %1) unnamed_addr #0 align 2 {
  %3 = alloca ptr, align 8
  %4 = alloca ptr, align 8
  store ptr %0, ptr %3, align 8, !tbaa !91
  store ptr %1, ptr %4, align 8, !tbaa !91
  %5 = load ptr, ptr %3, align 8
  %6 = load ptr, ptr %4, align 8, !tbaa !91
  call void @_ZNSt15__new_allocatorIcEC2ERKS0_(ptr noundef nonnull align 1 dereferenceable(1) %5, ptr noundef nonnull align 1 dereferenceable(1) %6) #9
  ret void
}

; Function Attrs: mustprogress nounwind uwtable
define linkonce_odr dso_local void @_ZNSt15__new_allocatorIcEC2Ev(ptr noundef nonnull align 1 dereferenceable(1) %0) unnamed_addr #0 comdat align 2 {
  %2 = alloca ptr, align 8
  store ptr %0, ptr %2, align 8, !tbaa !131
  ret void
}

; Function Attrs: mustprogress nounwind uwtable
define linkonce_odr dso_local noundef ptr @_ZNSt19__ptr_traits_ptr_toIPccLb0EE10pointer_toERc(ptr noundef nonnull align 1 dereferenceable(1) %0) #0 comdat align 2 {
  %2 = alloca ptr, align 8
  store ptr %0, ptr %2, align 8, !tbaa !58
  %3 = load ptr, ptr %2, align 8, !tbaa !58
  ret ptr %3
}

; Function Attrs: mustprogress uwtable
define linkonce_odr dso_local void @_ZN7emhash87HashMapI11StringPieceSt10unique_ptrIN8BuildLog8LogEntryESt14default_deleteIS4_EESt4hashIS1_ESt8equal_toIS1_ESaISt4pairIS1_S7_EENS_13DefaultPolicyEE15max_load_factorEf(ptr noundef nonnull align 8 dereferenceable(44) %0, float noundef %1) #2 comdat align 2 {
  %3 = alloca ptr, align 8
  %4 = alloca float, align 4
  store ptr %0, ptr %3, align 8, !tbaa !40
  store float %1, ptr %4, align 4, !tbaa !42
  %5 = load ptr, ptr %3, align 8
  %6 = load float, ptr %4, align 4, !tbaa !42
  %7 = fpext float %6 to double
  %8 = fcmp olt double %7, 0x3FEFBE76C8B43958
  br i1 %8, label %9, label %25

9:                                                ; preds = %2
  %10 = load float, ptr %4, align 4, !tbaa !42
  %11 = fcmp ogt float %10, 2.500000e-01
  br i1 %11, label %12, label %25

12:                                               ; preds = %9
  %13 = load float, ptr %4, align 4, !tbaa !42
  %14 = fdiv float 0x41A0000000000000, %13
  %15 = fptoui float %14 to i32
  %16 = getelementptr inbounds nuw %"class.emhash8::HashMap", ptr %5, i32 0, i32 3
  store i32 %15, ptr %16, align 4, !tbaa !145
  %17 = getelementptr inbounds nuw %"class.emhash8::HashMap", ptr %5, i32 0, i32 5
  %18 = load i32, ptr %17, align 4, !tbaa !144
  %19 = icmp ugt i32 %18, 0
  br i1 %19, label %20, label %24

20:                                               ; preds = %12
  %21 = getelementptr inbounds nuw %"class.emhash8::HashMap", ptr %5, i32 0, i32 5
  %22 = load i32, ptr %21, align 4, !tbaa !144
  %23 = zext i32 %22 to i64
  call void @_ZN7emhash87HashMapI11StringPieceSt10unique_ptrIN8BuildLog8LogEntryESt14default_deleteIS4_EESt4hashIS1_ESt8equal_toIS1_ESaISt4pairIS1_S7_EENS_13DefaultPolicyEE6rehashEm(ptr noundef nonnull align 8 dereferenceable(44) %5, i64 noundef %23)
  br label %24

24:                                               ; preds = %20, %12
  br label %25

25:                                               ; preds = %24, %9, %2
  ret void
}

; Function Attrs: noinline noreturn nounwind uwtable
define linkonce_odr hidden void @__clang_call_terminate(ptr noundef %0) #3 comdat {
  %2 = call ptr @__cxa_begin_catch(ptr %0) #9
  call void @_ZSt9terminatev() #21
  unreachable
}

; Function Attrs: mustprogress nounwind uwtable
define available_externally void @_ZNSt7__cxx1112basic_stringIcSt11char_traitsIcESaIcEE13_M_set_lengthEm(ptr noundef nonnull align 8 dereferenceable(32) %0, i64 noundef %1) #0 align 2 {
  %3 = alloca ptr, align 8
  %4 = alloca i64, align 8
  %5 = alloca i8, align 1
  store ptr %0, ptr %3, align 8, !tbaa !16
  store i64 %1, ptr %4, align 8, !tbaa !13
  %6 = load ptr, ptr %3, align 8
  %7 = load i64, ptr %4, align 8, !tbaa !13
  call void @_ZNSt7__cxx1112basic_stringIcSt11char_traitsIcESaIcEE9_M_lengthEm(ptr noundef nonnull align 8 dereferenceable(32) %6, i64 noundef %7)
  %8 = call noundef ptr @_ZNKSt7__cxx1112basic_stringIcSt11char_traitsIcESaIcEE7_M_dataEv(ptr noundef nonnull align 8 dereferenceable(32) %6)
  %9 = load i64, ptr %4, align 8, !tbaa !13
  %10 = getelementptr inbounds nuw i8, ptr %8, i64 %9
  call void @llvm.lifetime.start.p0(i64 1, ptr %5) #9
  store i8 0, ptr %5, align 1, !tbaa !26
  call void @_ZNSt11char_traitsIcE6assignERcRKc(ptr noundef nonnull align 1 dereferenceable(1) %10, ptr noundef nonnull align 1 dereferenceable(1) %5) #9
  call void @llvm.lifetime.end.p0(i64 1, ptr %5) #9
  ret void
}

; Function Attrs: alwaysinline mustprogress nounwind uwtable
define available_externally noundef ptr @_ZNSt7__cxx1112basic_stringIcSt11char_traitsIcESaIcEE17_M_use_local_dataEv(ptr noundef nonnull align 8 dereferenceable(32) %0) #18 align 2 {
  %2 = alloca ptr, align 8
  store ptr %0, ptr %2, align 8, !tbaa !16
  %3 = load ptr, ptr %2, align 8
  %4 = call noundef ptr @_ZNSt7__cxx1112basic_stringIcSt11char_traitsIcESaIcEE13_M_local_dataEv(ptr noundef nonnull align 8 dereferenceable(32) %3)
  ret ptr %4
}

; Function Attrs: mustprogress nounwind uwtable
define linkonce_odr dso_local void @_ZNSt15__new_allocatorIcED2Ev(ptr noundef nonnull align 1 dereferenceable(1) %0) unnamed_addr #0 comdat align 2 {
  %2 = alloca ptr, align 8
  store ptr %0, ptr %2, align 8, !tbaa !131
  ret void
}

; Function Attrs: mustprogress nounwind uwtable
define available_externally void @_ZNSt7__cxx1112basic_stringIcSt11char_traitsIcESaIcEE12_Alloc_hiderC2EPcOS3_(ptr noundef nonnull align 8 dereferenceable(8) %0, ptr noundef %1, ptr noundef nonnull align 1 dereferenceable(1) %2) unnamed_addr #0 align 2 {
  %4 = alloca ptr, align 8
  %5 = alloca ptr, align 8
  %6 = alloca ptr, align 8
  store ptr %0, ptr %4, align 8, !tbaa !133
  store ptr %1, ptr %5, align 8, !tbaa !58
  store ptr %2, ptr %6, align 8, !tbaa !91
  %7 = load ptr, ptr %4, align 8
  %8 = load ptr, ptr %6, align 8, !tbaa !91
  call void @_ZNSaIcEC2ERKS_(ptr noundef nonnull align 1 dereferenceable(1) %7, ptr noundef nonnull align 1 dereferenceable(1) %8) #9
  %9 = getelementptr inbounds nuw %"struct.std::__cxx11::basic_string<char>::_Alloc_hider", ptr %7, i32 0, i32 0
  %10 = load ptr, ptr %5, align 8, !tbaa !58
  store ptr %10, ptr %9, align 8, !tbaa !135
  ret void
}

; Function Attrs: mustprogress nounwind uwtable
define available_externally void @_ZNSaIcEC2Ev(ptr noundef nonnull align 1 dereferenceable(1) %0) unnamed_addr #0 align 2 {
  %2 = alloca ptr, align 8
  store ptr %0, ptr %2, align 8, !tbaa !91
  %3 = load ptr, ptr %2, align 8
  call void @_ZNSt15__new_allocatorIcEC2Ev(ptr noundef nonnull align 1 dereferenceable(1) %3) #9
  ret void
}

; Function Attrs: mustprogress nounwind uwtable
define available_externally noundef ptr @_ZNSt7__cxx1112basic_stringIcSt11char_traitsIcESaIcEE13_M_local_dataEv(ptr noundef nonnull align 8 dereferenceable(32) %0) #0 align 2 {
  %2 = alloca ptr, align 8
  store ptr %0, ptr %2, align 8, !tbaa !16
  %3 = load ptr, ptr %2, align 8
  %4 = getelementptr inbounds nuw %"class.std::__cxx11::basic_string", ptr %3, i32 0, i32 2
  %5 = getelementptr inbounds [16 x i8], ptr %4, i64 0, i64 0
  %6 = call noundef ptr @_ZNSt19__ptr_traits_ptr_toIPccLb0EE10pointer_toERc(ptr noundef nonnull align 1 dereferenceable(1) %5) #9
  ret ptr %6
}

; Function Attrs: mustprogress uwtable
define linkonce_odr dso_local void @_ZN7emhash87HashMapI11StringPieceSt10unique_ptrIN8BuildLog8LogEntryESt14default_deleteIS4_EESt4hashIS1_ESt8equal_toIS1_ESaISt4pairIS1_S7_EENS_13DefaultPolicyEE4initEjf(ptr noundef nonnull align 8 dereferenceable(44) %0, i32 noundef %1, float noundef %2) #2 comdat align 2 {
  %4 = alloca ptr, align 8
  %5 = alloca i32, align 4
  %6 = alloca float, align 4
  store ptr %0, ptr %4, align 8, !tbaa !40
  store i32 %1, ptr %5, align 4, !tbaa !27
  store float %2, ptr %6, align 4, !tbaa !42
  %7 = load ptr, ptr %4, align 8
  %8 = getelementptr inbounds nuw %"class.emhash8::HashMap", ptr %7, i32 0, i32 1
  store ptr null, ptr %8, align 8, !tbaa !44
  %9 = getelementptr inbounds nuw %"class.emhash8::HashMap", ptr %7, i32 0, i32 0
  store ptr null, ptr %9, align 8, !tbaa !45
  %10 = getelementptr inbounds nuw %"class.emhash8::HashMap", ptr %7, i32 0, i32 5
  store i32 0, ptr %10, align 4, !tbaa !144
  %11 = getelementptr inbounds nuw %"class.emhash8::HashMap", ptr %7, i32 0, i32 4
  store i32 0, ptr %11, align 8, !tbaa !109
  %12 = getelementptr inbounds nuw %"class.emhash8::HashMap", ptr %7, i32 0, i32 6
  store i32 0, ptr %12, align 8, !tbaa !84
  %13 = getelementptr inbounds nuw %"class.emhash8::HashMap", ptr %7, i32 0, i32 3
  store i32 167772160, ptr %13, align 4, !tbaa !145
  %14 = load float, ptr %6, align 4, !tbaa !42
  call void @_ZN7emhash87HashMapI11StringPieceSt10unique_ptrIN8BuildLog8LogEntryESt14default_deleteIS4_EESt4hashIS1_ESt8equal_toIS1_ESaISt4pairIS1_S7_EENS_13DefaultPolicyEE15max_load_factorEf(ptr noundef nonnull align 8 dereferenceable(44) %7, float noundef %14)
  %15 = load i32, ptr %5, align 4, !tbaa !27
  %16 = zext i32 %15 to i64
  call void @_ZN7emhash87HashMapI11StringPieceSt10unique_ptrIN8BuildLog8LogEntryESt14default_deleteIS4_EESt4hashIS1_ESt8equal_toIS1_ESaISt4pairIS1_S7_EENS_13DefaultPolicyEE6rehashEm(ptr noundef nonnull align 8 dereferenceable(44) %7, i64 noundef %16)
  ret void
}

; Function Attrs: mustprogress nounwind uwtable
define available_externally void @_ZNSt7__cxx1112basic_stringIcSt11char_traitsIcESaIcEEC2Ev(ptr noundef nonnull align 8 dereferenceable(32) %0) unnamed_addr #0 align 2 personality ptr @__gxx_personality_v0 {
  %2 = alloca ptr, align 8
  %3 = alloca %"class.std::allocator", align 1
  store ptr %0, ptr %2, align 8, !tbaa !16
  %4 = load ptr, ptr %2, align 8
  %5 = getelementptr inbounds nuw %"class.std::__cxx11::basic_string", ptr %4, i32 0, i32 0
  %6 = call noundef ptr @_ZNSt7__cxx1112basic_stringIcSt11char_traitsIcESaIcEE13_M_local_dataEv(ptr noundef nonnull align 8 dereferenceable(32) %4)
  call void @llvm.lifetime.start.p0(i64 1, ptr %3) #9
  call void @_ZNSaIcEC2Ev(ptr noundef nonnull align 1 dereferenceable(1) %3) #9
  invoke void @_ZNSt7__cxx1112basic_stringIcSt11char_traitsIcESaIcEE12_Alloc_hiderC2EPcOS3_(ptr noundef nonnull align 8 dereferenceable(8) %5, ptr noundef %6, ptr noundef nonnull align 1 dereferenceable(1) %3)
          to label %7 unwind label %9

7:                                                ; preds = %1
  call void @_ZNSt15__new_allocatorIcED2Ev(ptr noundef nonnull align 1 dereferenceable(1) %3) #9
  call void @llvm.lifetime.end.p0(i64 1, ptr %3) #9
  %8 = call noundef ptr @_ZNSt7__cxx1112basic_stringIcSt11char_traitsIcESaIcEE17_M_use_local_dataEv(ptr noundef nonnull align 8 dereferenceable(32) %4) #9
  call void @_ZNSt7__cxx1112basic_stringIcSt11char_traitsIcESaIcEE13_M_set_lengthEm(ptr noundef nonnull align 8 dereferenceable(32) %4, i64 noundef 0)
  ret void

9:                                                ; preds = %1
  %10 = landingpad { ptr, i32 }
          catch ptr null
  %11 = extractvalue { ptr, i32 } %10, 0
  call void @__clang_call_terminate(ptr %11) #21
  unreachable
}

; Function Attrs: mustprogress uwtable
define linkonce_odr dso_local void @_ZN7emhash87HashMapI11StringPieceSt10unique_ptrIN8BuildLog8LogEntryESt14default_deleteIS4_EESt4hashIS1_ESt8equal_toIS1_ESaISt4pairIS1_S7_EENS_13DefaultPolicyEEC2Ejf(ptr noundef nonnull align 8 dereferenceable(44) %0, i32 noundef %1, float noundef %2) unnamed_addr #2 comdat align 2 {
  %4 = alloca ptr, align 8
  %5 = alloca i32, align 4
  %6 = alloca float, align 4
  store ptr %0, ptr %4, align 8, !tbaa !40
  store i32 %1, ptr %5, align 4, !tbaa !27
  store float %2, ptr %6, align 4, !tbaa !42
  %7 = load ptr, ptr %4, align 8
  %8 = load i32, ptr %5, align 4, !tbaa !27
  %9 = load float, ptr %6, align 4, !tbaa !42
  call void @_ZN7emhash87HashMapI11StringPieceSt10unique_ptrIN8BuildLog8LogEntryESt14default_deleteIS4_EESt4hashIS1_ESt8equal_toIS1_ESaISt4pairIS1_S7_EENS_13DefaultPolicyEE4initEjf(ptr noundef nonnull align 8 dereferenceable(44) %7, i32 noundef %8, float noundef %9)
  ret void
}

; Function Attrs: mustprogress uwtable
define dso_local void @_ZN8BuildLogC2Ev(ptr noundef nonnull align 8 dereferenceable(89) %0) unnamed_addr #2 align 2 {
  %2 = alloca ptr, align 8
  store ptr %0, ptr %2, align 8, !tbaa !28
  %3 = load ptr, ptr %2, align 8
  %4 = getelementptr inbounds nuw %struct.BuildLog, ptr %3, i32 0, i32 0
  call void @_ZN7emhash87HashMapI11StringPieceSt10unique_ptrIN8BuildLog8LogEntryESt14default_deleteIS4_EESt4hashIS1_ESt8equal_toIS1_ESaISt4pairIS1_S7_EENS_13DefaultPolicyEEC2Ejf(ptr noundef nonnull align 8 dereferenceable(44) %4, i32 noundef 2, float noundef 0x3FE99999A0000000)
  %5 = getelementptr inbounds nuw %struct.BuildLog, ptr %3, i32 0, i32 1
  store ptr null, ptr %5, align 8, !tbaa !30
  %6 = getelementptr inbounds nuw %struct.BuildLog, ptr %3, i32 0, i32 2
  call void @_ZNSt7__cxx1112basic_stringIcSt11char_traitsIcESaIcEEC2Ev(ptr noundef nonnull align 8 dereferenceable(32) %6) #9
  %7 = getelementptr inbounds nuw %struct.BuildLog, ptr %3, i32 0, i32 3
  store i8 0, ptr %7, align 8, !tbaa !39
  ret void
}