; Function Attrs: mustprogress uwtable
define dso_local void @_ZN8BuildLogC2Ev(ptr noundef nonnull align 8 dereferenceable(89) initializes((0, 16), (20, 36)) %0) unnamed_addr #2 align 2 personality ptr @__gxx_personality_v0 {
  %2 = getelementptr inbounds nuw i8, ptr %0, i64 28
  store i32 0, ptr %2, align 4, !tbaa !22
  %3 = getelementptr inbounds nuw i8, ptr %0, i64 24
  store i32 0, ptr %3, align 8, !tbaa !28
  %4 = getelementptr inbounds nuw i8, ptr %0, i64 32
  store i32 0, ptr %4, align 8, !tbaa !29
  %5 = getelementptr inbounds nuw i8, ptr %0, i64 20
  tail call void @llvm.memset.p0.i64(ptr noundef nonnull align 8 dereferenceable(44) %0, i8 0, i64 16, i1 false)
  store i32 167772160, ptr %5, align 4, !tbaa !30
  tail call void @_ZN7emhash87HashMapI11StringPieceSt10unique_ptrIN8BuildLog8LogEntryESt14default_deleteIS4_EESt4hashIS1_ESt8equal_toIS1_ESaISt4pairIS1_S7_EENS_13DefaultPolicyEE6rehashEm(ptr noundef nonnull align 8 dereferenceable(44) %0, i64 noundef 2)
  %6 = getelementptr inbounds nuw i8, ptr %0, i64 48
  store ptr null, ptr %6, align 8, !tbaa !31
  %7 = getelementptr inbounds nuw i8, ptr %0, i64 56
  %8 = getelementptr inbounds nuw i8, ptr %0, i64 72
  store ptr %8, ptr %7, align 8, !tbaa !4
  %9 = getelementptr inbounds nuw i8, ptr %0, i64 64
  store i64 0, ptr %9, align 8, !tbaa !13
  store i8 0, ptr %8, align 8, !tbaa !14
  %10 = getelementptr inbounds nuw i8, ptr %0, i64 88
  store i8 0, ptr %10, align 8, !tbaa !35
  ret void
}